target datalayout = "e-m:e-p270:32:32-p271:32:32-p272:64:64-i64:64-i128:128-f80:128-n8:16:32:64-S128"
target triple = "x86_64-unknown-linux-gnu"

%struct.QemuEvent = type { i32, i8 }
%struct.QemuThread = type { i64 }
%struct.QemuSemaphore = type { %struct.QemuMutex, %struct.QemuCond, i32 }
%struct.QemuMutex = type { %union.pthread_mutex_t, i8 }
%union.pthread_mutex_t = type { %struct.__pthread_mutex_s }
%struct.__pthread_mutex_s = type { i32, i32, i32, i32, i32, i16, i16, %struct.__pthread_internal_list }
%struct.__pthread_internal_list = type { ptr, ptr }
%struct.QemuCond = type { %union.pthread_cond_t, i8 }
%union.pthread_cond_t = type { %struct.__pthread_cond_s }
%struct.__pthread_cond_s = type { %union.__atomic_wide_counter, %union.__atomic_wide_counter, [2 x i32], [2 x i32], i32, i32, [2 x i32] }
%union.__atomic_wide_counter = type { i64 }
%struct.MigrationState = type { %struct.DeviceState, %struct.QemuThread, ptr, ptr, ptr, ptr, %struct.QemuSemaphore, ptr, %struct.QemuMutex, %struct.QemuSemaphore, i64, double, i64, i64, i64, %struct.MigrationParameters, i32, %struct.anon.2, double, i64, i64, i64, i64, i64, [23 x i8], i64, i32, i8, i8, i8, i8, %struct.QemuSemaphore, %struct.QemuSemaphore, %struct.QemuSemaphore, %struct.QemuEvent, i64, ptr, ptr, %struct.QemuMutex, i8, i8, i8, i8, %struct.QemuSemaphore, i8, i8, i8, i8, ptr, ptr, i8, i8 }
%struct.DeviceState = type { %struct.Object, ptr, ptr, i8, i8, i64, ptr, i32, i8, ptr, %struct.NamedGPIOListHead, %struct.NamedClockListHead, %struct.BusStateHead, i32, i32, i32, %struct.ResettableState, ptr, %struct.MemReentrancyGuard }
%struct.Object = type { ptr, ptr, ptr, i32, ptr }
%struct.NamedGPIOListHead = type { ptr }
%struct.NamedClockListHead = type { ptr }
%struct.BusStateHead = type { ptr }
%struct.ResettableState = type { i32, i8, i8 }
%struct.MemReentrancyGuard = type { i8 }
%struct.MigrationParameters = type { i8, i64, i8, i64, i8, i64, i8, i64, i8, i8, i8, i8, i8, i8, i8, i8, i8, i8, i8, i8, i8, i8, i8, i8, ptr, ptr, ptr, i8, i64, i8, i64, i8, i64, i8, i32, i8, i8, i8, i8, i8, i64, i8, i64, i8, i8, i8, i32, i8, i8, i8, i8, i8, ptr, i8, i64, i8, i64, i8, i32 }
%struct.anon.2 = type { ptr, %struct.QemuThread, i8, %struct.QemuSemaphore, %struct.QemuSemaphore }
%struct.QemuLockable = type { ptr, ptr, ptr }

; Function Attrs: nounwind sspstrong uwtable
define internal void @qemu_lockable_unlock(ptr noundef %x) #0 {
entry:
  %x.addr = alloca ptr, align 8
  store ptr %x, ptr %x.addr, align 8
  %0 = load ptr, ptr %x.addr, align 8
  %unlock = getelementptr inbounds %struct.QemuLockable, ptr %0, i32 0, i32 2
  %1 = load ptr, ptr %unlock, align 8
  %2 = load ptr, ptr %x.addr, align 8
  %object = getelementptr inbounds %struct.QemuLockable, ptr %2, i32 0, i32 0
  %3 = load ptr, ptr %object, align 8
  call void %1(ptr noundef %3)
  ret void
}

; Function Attrs: nounwind sspstrong uwtable
define internal void @qemu_lockable_auto_unlock(ptr noundef %x) #0 {
entry:
  %x.addr = alloca ptr, align 8
  store ptr %x, ptr %x.addr, align 8
  %0 = load ptr, ptr %x.addr, align 8
  %tobool = icmp ne ptr %0, null
  br i1 %tobool, label %if.then, label %if.end

if.then:                                          ; preds = %entry
  %1 = load ptr, ptr %x.addr, align 8
  call void @qemu_lockable_unlock(ptr noundef %1)
  br label %if.end

if.end:                                           ; preds = %if.then, %entry
  ret void
}

; Function Attrs: nounwind sspstrong uwtable
define internal void @glib_autoptr_clear_QemuLockable(ptr noundef %_ptr) #0 {
entry:
  %_ptr.addr = alloca ptr, align 8
  store ptr %_ptr, ptr %_ptr.addr, align 8
  %0 = load ptr, ptr %_ptr.addr, align 8
  %tobool = icmp ne ptr %0, null
  br i1 %tobool, label %if.then, label %if.end

if.then:                                          ; preds = %entry
  %1 = load ptr, ptr %_ptr.addr, align 8
  call void @qemu_lockable_auto_unlock(ptr noundef %1)
  br label %if.end

if.end:                                           ; preds = %if.then, %entry
  ret void
}

; Function Attrs: nounwind sspstrong uwtable
define internal void @qemu_lockable_lock(ptr noundef %x) #0 {
entry:
  %x.addr = alloca ptr, align 8
  store ptr %x, ptr %x.addr, align 8
  %0 = load ptr, ptr %x.addr, align 8
  %lock = getelementptr inbounds %struct.QemuLockable, ptr %0, i32 0, i32 1
  %1 = load ptr, ptr %lock, align 8
  %2 = load ptr, ptr %x.addr, align 8
  %object = getelementptr inbounds %struct.QemuLockable, ptr %2, i32 0, i32 0
  %3 = load ptr, ptr %object, align 8
  call void %1(ptr noundef %3)
  ret void
}

; Function Attrs: nounwind sspstrong uwtable
define internal void @glib_autoptr_cleanup_QemuLockable(ptr noundef %_ptr) #0 {
entry:
  %_ptr.addr = alloca ptr, align 8
  store ptr %_ptr, ptr %_ptr.addr, align 8
  %0 = load ptr, ptr %_ptr.addr, align 8
  %1 = load ptr, ptr %0, align 8
  call void @glib_autoptr_clear_QemuLockable(ptr noundef %1)
  ret void
}

; Function Attrs: nounwind sspstrong uwtable
define internal ptr @qemu_lockable_auto_lock(ptr noundef %x) #0 {
entry:
  %x.addr = alloca ptr, align 8
  store ptr %x, ptr %x.addr, align 8
  %0 = load ptr, ptr %x.addr, align 8
  call void @qemu_lockable_lock(ptr noundef %0)
  %1 = load ptr, ptr %x.addr, align 8
  ret ptr %1
}

; Function Attrs: nounwind sspstrong uwtable
define dso_local void @migrate_set_error(ptr noundef %s, ptr noundef %error) #0 {
entry:
  %x.addr.i = alloca ptr, align 8
  %lockable.addr.i = alloca ptr, align 8
  %s.addr = alloca ptr, align 8
  %error.addr = alloca ptr, align 8
  %qemu_lockable_auto9 = alloca ptr, align 8
  %.compoundliteral = alloca %struct.QemuLockable, align 8
  store ptr %s, ptr %s.addr, align 8
  store ptr %error, ptr %error.addr, align 8
  %0 = load ptr, ptr %s.addr, align 8
  %error_mutex = getelementptr inbounds %struct.MigrationState, ptr %0, i32 0, i32 38
  %object = getelementptr inbounds %struct.QemuLockable, ptr %.compoundliteral, i32 0, i32 0
  %1 = load ptr, ptr %s.addr, align 8
  %error_mutex1 = getelementptr inbounds %struct.MigrationState, ptr %1, i32 0, i32 38
  store ptr %error_mutex1, ptr %object, align 8
  %lock = getelementptr inbounds %struct.QemuLockable, ptr %.compoundliteral, i32 0, i32 1
  store ptr @qemu_mutex_lock, ptr %lock, align 8
  %unlock = getelementptr inbounds %struct.QemuLockable, ptr %.compoundliteral, i32 0, i32 2
  store ptr @qemu_mutex_unlock, ptr %unlock, align 8
  store ptr %error_mutex, ptr %x.addr.i, align 8
  store ptr %.compoundliteral, ptr %lockable.addr.i, align 8
  %2 = load ptr, ptr %x.addr.i, align 8
  %tobool.i = icmp ne ptr %2, null
  br i1 %tobool.i, label %cond.true.i, label %cond.false.i

cond.true.i:                                      ; preds = %entry
  %3 = load ptr, ptr %lockable.addr.i, align 8
  br label %qemu_make_lockable.exit

cond.false.i:                                     ; preds = %entry
  br label %qemu_make_lockable.exit

qemu_make_lockable.exit:                          ; preds = %cond.false.i, %cond.true.i
  %cond.i = phi ptr [ %3, %cond.true.i ], [ null, %cond.false.i ]
  %call2 = call ptr @qemu_lockable_auto_lock(ptr noundef %cond.i)
  store ptr %call2, ptr %qemu_lockable_auto9, align 8
  %4 = load ptr, ptr %s.addr, align 8
  %error3 = getelementptr inbounds %struct.MigrationState, ptr %4, i32 0, i32 37
  %5 = load ptr, ptr %error3, align 8
  %tobool = icmp ne ptr %5, null
  br i1 %tobool, label %if.end, label %if.then

if.then:                                          ; preds = %qemu_make_lockable.exit
  %6 = load ptr, ptr %error.addr, align 8
  %call4 = call ptr @error_copy(ptr noundef %6)
  %7 = load ptr, ptr %s.addr, align 8
  %error5 = getelementptr inbounds %struct.MigrationState, ptr %7, i32 0, i32 37
  store ptr %call4, ptr %error5, align 8
  br label %if.end

if.end:                                           ; preds = %if.then, %qemu_make_lockable.exit
  call void @glib_autoptr_cleanup_QemuLockable(ptr noundef %qemu_lockable_auto9)
  ret void
}