; Function Attrs: nounwind sspstrong uwtable
define dso_local void @migrate_set_error(ptr noundef %s, ptr noundef %error) local_unnamed_addr #0 {
entry:
  %error_mutex = getelementptr inbounds nuw i8, ptr %s, i64 1488
  %0 = load atomic i64, ptr @qemu_mutex_lock_func monotonic, align 8
  %1 = inttoptr i64 %0 to ptr
  tail call void %1(ptr noundef nonnull %error_mutex, ptr noundef nonnull @.str.53, i32 noundef 122) #19
  %error3 = getelementptr inbounds nuw i8, ptr %s, i64 1480
  %2 = load ptr, ptr %error3, align 8
  %tobool.not = icmp eq ptr %2, null
  br i1 %tobool.not, label %if.then, label %glib_autoptr_cleanup_QemuLockable.exit

if.then:                                          ; preds = %entry
  %call4 = tail call ptr @error_copy(ptr noundef %error) #19
  store ptr %call4, ptr %error3, align 8
  br label %glib_autoptr_cleanup_QemuLockable.exit

glib_autoptr_cleanup_QemuLockable.exit:           ; preds = %if.then, %entry
  tail call void @qemu_mutex_unlock_impl(ptr noundef nonnull %error_mutex, ptr noundef nonnull @.str.53, i32 noundef 132) #19
  ret void
}